target datalayout = "e-m:e-p270:32:32-p271:32:32-p272:64:64-i64:64-i128:128-f80:128-n8:16:32:64-S128"
target triple = "x86_64-pc-linux-gnu"

@PyExc_OverflowError = external global ptr, align 8
@.str.59 = private unnamed_addr constant [17 x i8] c"math range error\00", align 1
@PyExc_ValueError = external global ptr, align 8
@.str.60 = private unnamed_addr constant [18 x i8] c"math domain error\00", align 1

; Function Attrs: nounwind uwtable
define internal i32 @is_error(double noundef %0, i32 noundef %1) #0 {
  %3 = alloca double, align 8
  %4 = alloca i32, align 4
  %5 = alloca i32, align 4
  store double %0, ptr %3, align 8, !tbaa !13
  store i32 %1, ptr %4, align 4, !tbaa !17
  call void @llvm.lifetime.start.p0(i64 4, ptr %5) #10
  store i32 1, ptr %5, align 4, !tbaa !17
  %6 = call ptr @__errno_location() #12
  %7 = load i32, ptr %6, align 4, !tbaa !17
  %8 = icmp eq i32 %7, 33
  br i1 %8, label %9, label %15

9:                                                ; preds = %2
  %10 = load i32, ptr %4, align 4, !tbaa !17
  %11 = icmp ne i32 %10, 0
  br i1 %11, label %12, label %14

12:                                               ; preds = %9
  %13 = load ptr, ptr @PyExc_ValueError, align 8, !tbaa !3
  call void @PyErr_SetString(ptr noundef %13, ptr noundef @.str.60)
  br label %14

14:                                               ; preds = %12, %9
  br label %31

15:                                               ; preds = %2
  %16 = call ptr @__errno_location() #12
  %17 = load i32, ptr %16, align 4, !tbaa !17
  %18 = icmp eq i32 %17, 34
  br i1 %18, label %19, label %27

19:                                               ; preds = %15
  %20 = load double, ptr %3, align 8, !tbaa !13
  %21 = call double @llvm.fabs.f64(double %20)
  %22 = fcmp olt double %21, 1.500000e+00
  br i1 %22, label %23, label %24

23:                                               ; preds = %19
  store i32 0, ptr %5, align 4, !tbaa !17
  br label %26

24:                                               ; preds = %19
  %25 = load ptr, ptr @PyExc_OverflowError, align 8, !tbaa !3
  call void @PyErr_SetString(ptr noundef %25, ptr noundef @.str.59)
  br label %26

26:                                               ; preds = %24, %23
  br label %30

27:                                               ; preds = %15
  %28 = load ptr, ptr @PyExc_ValueError, align 8, !tbaa !3
  %29 = call ptr @PyErr_SetFromErrno(ptr noundef %28)
  br label %30

30:                                               ; preds = %27, %26
  br label %31

31:                                               ; preds = %30, %14
  %32 = load i32, ptr %5, align 4, !tbaa !17
  call void @llvm.lifetime.end.p0(i64 4, ptr %5) #10
  ret i32 %32
}

; Function Attrs: nounwind uwtable
define internal ptr @math_1(ptr noundef %0, ptr noundef %1, i32 noundef %2, ptr noundef %3) #0 {
  %5 = alloca ptr, align 8
  %6 = alloca ptr, align 8
  %7 = alloca ptr, align 8
  %8 = alloca i32, align 4
  %9 = alloca ptr, align 8
  %10 = alloca double, align 8
  %11 = alloca double, align 8
  %12 = alloca i32, align 4
  %13 = alloca ptr, align 8
  store ptr %0, ptr %6, align 8, !tbaa !3
  store ptr %1, ptr %7, align 8, !tbaa !8
  store i32 %2, ptr %8, align 4, !tbaa !17
  store ptr %3, ptr %9, align 8, !tbaa !41
  call void @llvm.lifetime.start.p0(i64 8, ptr %10) #10
  call void @llvm.lifetime.start.p0(i64 8, ptr %11) #10
  %14 = load ptr, ptr %6, align 8, !tbaa !3
  %15 = call double @PyFloat_AsDouble(ptr noundef %14)
  store double %15, ptr %10, align 8, !tbaa !13
  %16 = load double, ptr %10, align 8, !tbaa !13
  %17 = fcmp oeq double %16, -1.000000e+00
  br i1 %17, label %18, label %22

18:                                               ; preds = %4
  %19 = call ptr @PyErr_Occurred()
  %20 = icmp ne ptr %19, null
  br i1 %20, label %21, label %22

21:                                               ; preds = %18
  store ptr null, ptr %5, align 8
  store i32 1, ptr %12, align 4
  br label %85

22:                                               ; preds = %18, %4
  %23 = call ptr @__errno_location() #12
  store i32 0, ptr %23, align 4, !tbaa !17
  %24 = load ptr, ptr %7, align 8, !tbaa !8
  %25 = load double, ptr %10, align 8, !tbaa !13
  %26 = call double %24(double noundef %25)
  store double %26, ptr %11, align 8, !tbaa !13
  %27 = load double, ptr %11, align 8, !tbaa !13
  %28 = call i1 @llvm.is.fpclass.f64(double %27, i32 3)
  br i1 %28, label %29, label %33

29:                                               ; preds = %22
  %30 = load double, ptr %10, align 8, !tbaa !13
  %31 = call i1 @llvm.is.fpclass.f64(double %30, i32 3)
  br i1 %31, label %33, label %32

32:                                               ; preds = %29
  br label %67

33:                                               ; preds = %29, %22
  %34 = load double, ptr %11, align 8, !tbaa !13
  %35 = call double @llvm.fabs.f64(double %34) #11
  %36 = fcmp oeq double %35, 0x7FF0000000000000
  %37 = bitcast double %34 to i64
  %38 = icmp slt i64 %37, 0
  %39 = select i1 %38, i32 -1, i32 1
  %40 = select i1 %36, i32 %39, i32 0
  %41 = icmp ne i32 %40, 0
  br i1 %41, label %42, label %52

42:                                               ; preds = %33
  %43 = load double, ptr %10, align 8, !tbaa !13
  %44 = call i1 @llvm.is.fpclass.f64(double %43, i32 504)
  br i1 %44, label %45, label %52

45:                                               ; preds = %42
  %46 = load i32, ptr %8, align 4, !tbaa !17
  %47 = icmp ne i32 %46, 0
  br i1 %47, label %48, label %50

48:                                               ; preds = %45
  %49 = load ptr, ptr @PyExc_OverflowError, align 8, !tbaa !3
  call void @PyErr_SetString(ptr noundef %49, ptr noundef @.str.59)
  br label %51

50:                                               ; preds = %45
  br label %67

51:                                               ; preds = %48
  store ptr null, ptr %5, align 8
  store i32 1, ptr %12, align 4
  br label %85

52:                                               ; preds = %42, %33
  %53 = load double, ptr %11, align 8, !tbaa !13
  %54 = call i1 @llvm.is.fpclass.f64(double %53, i32 504)
  br i1 %54, label %55, label %64

55:                                               ; preds = %52
  %56 = call ptr @__errno_location() #12
  %57 = load i32, ptr %56, align 4, !tbaa !17
  %58 = icmp ne i32 %57, 0
  br i1 %58, label %59, label %64

59:                                               ; preds = %55
  %60 = load double, ptr %11, align 8, !tbaa !13
  %61 = call i32 @is_error(double noundef %60, i32 noundef 1)
  %62 = icmp ne i32 %61, 0
  br i1 %62, label %63, label %64

63:                                               ; preds = %59
  store ptr null, ptr %5, align 8
  store i32 1, ptr %12, align 4
  br label %85

64:                                               ; preds = %59, %55, %52
  %65 = load double, ptr %11, align 8, !tbaa !13
  %66 = call ptr @PyFloat_FromDouble(double noundef %65)
  store ptr %66, ptr %5, align 8
  store i32 1, ptr %12, align 4
  br label %85

67:                                               ; preds = %50, %32
  %68 = load ptr, ptr %9, align 8, !tbaa !41
  %69 = icmp ne ptr %68, null
  br i1 %69, label %70, label %82

70:                                               ; preds = %67
  call void @llvm.lifetime.start.p0(i64 8, ptr %13) #10
  %71 = load double, ptr %10, align 8, !tbaa !13
  %72 = call ptr @PyOS_double_to_string(double noundef %71, i8 noundef signext 114, i32 noundef 0, i32 noundef 2, ptr noundef null)
  store ptr %72, ptr %13, align 8, !tbaa !41
  %73 = load ptr, ptr %13, align 8, !tbaa !41
  %74 = icmp ne ptr %73, null
  br i1 %74, label %75, label %81

75:                                               ; preds = %70
  %76 = load ptr, ptr @PyExc_ValueError, align 8, !tbaa !3
  %77 = load ptr, ptr %9, align 8, !tbaa !41
  %78 = load ptr, ptr %13, align 8, !tbaa !41
  %79 = call ptr (ptr, ptr, ...) @PyErr_Format(ptr noundef %76, ptr noundef %77, ptr noundef %78)
  %80 = load ptr, ptr %13, align 8, !tbaa !41
  call void @PyMem_Free(ptr noundef %80)
  br label %81

81:                                               ; preds = %75, %70
  call void @llvm.lifetime.end.p0(i64 8, ptr %13) #10
  br label %84

82:                                               ; preds = %67
  %83 = load ptr, ptr @PyExc_ValueError, align 8, !tbaa !3
  call void @PyErr_SetString(ptr noundef %83, ptr noundef @.str.60)
  br label %84

84:                                               ; preds = %82, %81
  store ptr null, ptr %5, align 8
  store i32 1, ptr %12, align 4
  br label %85

85:                                               ; preds = %84, %64, %63, %51, %21
  call void @llvm.lifetime.end.p0(i64 8, ptr %11) #10
  call void @llvm.lifetime.end.p0(i64 8, ptr %10) #10
  %86 = load ptr, ptr %5, align 8
  ret ptr %86
}

; Function Attrs: nounwind uwtable
define internal ptr @math_acosh(ptr noundef %0, ptr noundef %1) #0 {
  %3 = alloca ptr, align 8
  %4 = alloca ptr, align 8
  store ptr %0, ptr %3, align 8, !tbaa !3
  store ptr %1, ptr %4, align 8, !tbaa !3
  %5 = load ptr, ptr %4, align 8, !tbaa !3
  %6 = call ptr @math_1(ptr noundef %5, ptr noundef @acosh, i32 noundef 0, ptr noundef null)
  ret ptr %6
}