; Function Attrs: nounwind uwtable
define internal ptr @math_acosh(ptr readnone captures(none) %0, ptr noundef %1) #0 {
  %3 = tail call double @PyFloat_AsDouble(ptr noundef %1) #16
  %4 = fcmp oeq double %3, -1.000000e+00
  br i1 %4, label %5, label %7

5:                                                ; preds = %2
  %6 = tail call ptr @PyErr_Occurred() #16
  %.not.i = icmp eq ptr %6, null
  br i1 %.not.i, label %7, label %math_1.exit

7:                                                ; preds = %5, %2
  %8 = tail call ptr @__errno_location() #17
  store i32 0, ptr %8, align 4, !tbaa !14
  %9 = tail call double @acosh(double noundef %3) #16
  %10 = fcmp ord double %9, 0.000000e+00
  %11 = fcmp uno double %3, 0.000000e+00
  %or.cond.i = or i1 %11, %10
  br i1 %or.cond.i, label %12, label %31

12:                                               ; preds = %7
  %13 = tail call double @llvm.fabs.f64(double %9)
  %14 = fcmp une double %13, 0x7FF0000000000000
  %15 = tail call double @llvm.fabs.f64(double %3)
  %16 = fcmp ueq double %15, 0x7FF0000000000000
  %or.cond26.i = or i1 %16, %14
  br i1 %or.cond26.i, label %17, label %31

17:                                               ; preds = %12
  %18 = fcmp ueq double %13, 0x7FF0000000000000
  br i1 %18, label %is_error.exit.i, label %19

19:                                               ; preds = %17
  %20 = load i32, ptr %8, align 4, !tbaa !14
  switch i32 %20, label %27 [
    i32 0, label %is_error.exit.i
    i32 33, label %21
    i32 34, label %23
  ]

21:                                               ; preds = %19
  %22 = load ptr, ptr @PyExc_ValueError, align 8, !tbaa !12
  tail call void @PyErr_SetString(ptr noundef %22, ptr noundef nonnull @.str.60) #16
  br label %math_1.exit

23:                                               ; preds = %19
  %24 = fcmp olt double %13, 1.500000e+00
  br i1 %24, label %is_error.exit.i, label %25

25:                                               ; preds = %23
  %26 = load ptr, ptr @PyExc_OverflowError, align 8, !tbaa !12
  tail call void @PyErr_SetString(ptr noundef %26, ptr noundef nonnull @.str.59) #16
  br label %math_1.exit

27:                                               ; preds = %19
  %28 = load ptr, ptr @PyExc_ValueError, align 8, !tbaa !12
  %29 = tail call ptr @PyErr_SetFromErrno(ptr noundef %28) #16
  br label %math_1.exit

is_error.exit.i:                                  ; preds = %23, %19, %17
  %30 = tail call ptr @PyFloat_FromDouble(double noundef %9) #16
  br label %math_1.exit

31:                                               ; preds = %12, %7
  %32 = load ptr, ptr @PyExc_ValueError, align 8, !tbaa !12
  tail call void @PyErr_SetString(ptr noundef %32, ptr noundef nonnull @.str.60) #16
  br label %math_1.exit

math_1.exit:                                      ; preds = %5, %21, %25, %27, %is_error.exit.i, %31
  %.0.i = phi ptr [ %30, %is_error.exit.i ], [ null, %5 ], [ null, %31 ], [ null, %21 ], [ null, %25 ], [ null, %27 ]
  ret ptr %.0.i
}